; ModuleID = '52/89.c'
source_filename = "52/89.c"
target datalayout = "e-m:e-p270:32:32-p271:32:32-p272:64:64-i64:64-f80:128-n8:16:32:64-S128"
target triple = "x86_64-pc-linux-gnu"

@.str = private unnamed_addr constant [5 x i8] c"%d%d\00", align 1
@.str.1 = private unnamed_addr constant [3 x i8] c"%d\00", align 1
@.str.2 = private unnamed_addr constant [4 x i8] c" %d\00", align 1

; Function Attrs: noinline nounwind uwtable
define dso_local i32 @main(i32 %0, i8** %1) #0 {
  %3 = alloca i32, align 4
  %4 = alloca i32, align 4
  %5 = alloca i8**, align 8
  %6 = alloca i32, align 4
  %7 = alloca i32, align 4
  %8 = alloca i32, align 4
  %9 = alloca i32, align 4
  %10 = alloca [100 x i32], align 16
  %11 = alloca i32, align 4
  store i32 0, i32* %3, align 4
  store i32 %0, i32* %4, align 4
  store i8** %1, i8*** %5, align 8
  %12 = call i32 (i8*, ...) @__isoc99_scanf(i8* getelementptr inbounds ([5 x i8], [5 x i8]* @.str, i64 0, i64 0), i32* %7, i32* %6)
  store i32 0, i32* %8, align 4
  br label %13

13:                                               ; preds = %22, %2
  %14 = load i32, i32* %8, align 4
  %15 = load i32, i32* %7, align 4
  %16 = icmp slt i32 %14, %15
  br i1 %16, label %17, label %25

17:                                               ; preds = %13
  %18 = load i32, i32* %8, align 4
  %19 = sext i32 %18 to i64
  %20 = getelementptr inbounds [100 x i32], [100 x i32]* %10, i64 0, i64 %19
  %21 = call i32 (i8*, ...) @__isoc99_scanf(i8* getelementptr inbounds ([3 x i8], [3 x i8]* @.str.1, i64 0, i64 0), i32* %20)
  br label %22

22:                                               ; preds = %17
  %23 = load i32, i32* %8, align 4
  %24 = add nsw i32 %23, 1
  store i32 %24, i32* %8, align 4
  br label %13

25:                                               ; preds = %13
  %26 = load i32, i32* %7, align 4
  %27 = sub nsw i32 %26, 1
  store i32 %27, i32* %8, align 4
  br label %28

28:                                               ; preds = %41, %25
  %29 = load i32, i32* %8, align 4
  %30 = icmp sge i32 %29, 0
  br i1 %30, label %31, label %44

31:                                               ; preds = %28
  %32 = load i32, i32* %8, align 4
  %33 = sext i32 %32 to i64
  %34 = getelementptr inbounds [100 x i32], [100 x i32]* %10, i64 0, i64 %33
  %35 = load i32, i32* %34, align 4
  %36 = load i32, i32* %8, align 4
  %37 = load i32, i32* %6, align 4
  %38 = add nsw i32 %36, %37
  %39 = sext i32 %38 to i64
  %40 = getelementptr inbounds [100 x i32], [100 x i32]* %10, i64 0, i64 %39
  store i32 %35, i32* %40, align 4
  br label %41

41:                                               ; preds = %31
  %42 = load i32, i32* %8, align 4
  %43 = add nsw i32 %42, -1
  store i32 %43, i32* %8, align 4
  br label %28

44:                                               ; preds = %28
  %45 = load i32, i32* %7, align 4
  %46 = sub nsw i32 %45, 1
  %47 = load i32, i32* %6, align 4
  %48 = add nsw i32 %46, %47
  store i32 %48, i32* %9, align 4
  br label %49

49:                                               ; preds = %63, %44
  %50 = load i32, i32* %9, align 4
  %51 = load i32, i32* %7, align 4
  %52 = icmp sge i32 %50, %51
  br i1 %52, label %53, label %66

53:                                               ; preds = %49
  %54 = load i32, i32* %9, align 4
  %55 = sext i32 %54 to i64
  %56 = getelementptr inbounds [100 x i32], [100 x i32]* %10, i64 0, i64 %55
  %57 = load i32, i32* %56, align 4
  %58 = load i32, i32* %9, align 4
  %59 = load i32, i32* %7, align 4
  %60 = sub nsw i32 %58, %59
  %61 = sext i32 %60 to i64
  %62 = getelementptr inbounds [100 x i32], [100 x i32]* %10, i64 0, i64 %61
  store i32 %57, i32* %62, align 4
  br label %63

63:                                               ; preds = %53
  %64 = load i32, i32* %9, align 4
  %65 = add nsw i32 %64, -1
  store i32 %65, i32* %9, align 4
  br label %49

66:                                               ; preds = %49
  %67 = getelementptr inbounds [100 x i32], [100 x i32]* %10, i64 0, i64 0
  %68 = load i32, i32* %67, align 16
  %69 = call i32 (i8*, ...) @printf(i8* getelementptr inbounds ([3 x i8], [3 x i8]* @.str.1, i64 0, i64 0), i32 %68)
  store i32 1, i32* %11, align 4
  br label %70

70:                                               ; preds = %80, %66
  %71 = load i32, i32* %11, align 4
  %72 = load i32, i32* %7, align 4
  %73 = icmp slt i32 %71, %72
  br i1 %73, label %74, label %83

74:                                               ; preds = %70
  %75 = load i32, i32* %11, align 4
  %76 = sext i32 %75 to i64
  %77 = getelementptr inbounds [100 x i32], [100 x i32]* %10, i64 0, i64 %76
  %78 = load i32, i32* %77, align 4
  %79 = call i32 (i8*, ...) @printf(i8* getelementptr inbounds ([4 x i8], [4 x i8]* @.str.2, i64 0, i64 0), i32 %78)
  br label %80

80:                                               ; preds = %74
  %81 = load i32, i32* %11, align 4
  %82 = add nsw i32 %81, 1
  store i32 %82, i32* %11, align 4
  br label %70

83:                                               ; preds = %70
  ret i32 0
}

declare dso_local i32 @__isoc99_scanf(i8*, ...) #1

declare dso_local i32 @printf(i8*, ...) #1


!llvm.module.flags = !{!0}
!llvm.ident = !{!1}

!0 = !{i32 1, !"wchar_size", i32 4}
!1 = !{!"clang version 10.0.0-4ubuntu1 "}
